target datalayout = "e-m:e-p270:32:32-p271:32:32-p272:64:64-i64:64-i128:128-f80:128-n8:16:32:64-S128"
target triple = "x86_64-pc-linux-gnu"

%struct.isis_data = type { i8, i8, i16, ptr, ptr }

@hf_isis_hello_clv_restart_flags = internal global i32 0, align 4
@hf_isis_hello_clv_restart_remain_time = internal global i32 0, align 4
@hf_isis_hello_clv_restart_neighbor = internal global i32 0, align 4
@ett_isis_hello_clv_restart_flags = internal global i32 0, align 4
@dissect_hello_restart_clv.flags = internal constant [4 x ptr] [ptr @hf_isis_hello_clv_restart_flags_sa, ptr @hf_isis_hello_clv_restart_flags_ra, ptr @hf_isis_hello_clv_restart_flags_rr, ptr null], align 16
@.str.215 = private unnamed_addr constant [2 x i8] c"s\00", align 1

; Function Attrs: null_pointer_is_valid sspstrong uwtable
define internal void @dissect_hello_restart_clv(ptr noundef %0, ptr noundef %1, ptr noundef %2, i32 noundef %3, ptr noundef %4, i32 noundef %5) #0 {
  %7 = alloca ptr, align 8
  %8 = alloca ptr, align 8
  %9 = alloca ptr, align 8
  %10 = alloca i32, align 4
  %11 = alloca ptr, align 8
  %12 = alloca i32, align 4
  %13 = alloca i32, align 4
  %14 = alloca ptr, align 8
  store ptr %0, ptr %7, align 8
  store ptr %1, ptr %8, align 8
  store ptr %2, ptr %9, align 8
  store i32 %3, ptr %10, align 4
  store ptr %4, ptr %11, align 8
  store i32 %5, ptr %12, align 4
  call void @llvm.lifetime.start.p0(i64 4, ptr %13) #4
  store i32 0, ptr %13, align 4
  call void @llvm.lifetime.start.p0(i64 8, ptr %14) #4
  %15 = load i32, ptr %12, align 4
  %16 = icmp sge i32 %15, 1
  br i1 %16, label %17, label %28

17:                                               ; preds = %6
  %18 = load ptr, ptr %7, align 8
  %19 = load i32, ptr %10, align 4
  %20 = call zeroext i8 @tvb_get_uint8(ptr noundef %18, i32 noundef %19)
  %21 = zext i8 %20 to i32
  store i32 %21, ptr %13, align 4
  %22 = load ptr, ptr %9, align 8
  %23 = load ptr, ptr %7, align 8
  %24 = load i32, ptr %10, align 4
  %25 = load i32, ptr @hf_isis_hello_clv_restart_flags, align 4
  %26 = load i32, ptr @ett_isis_hello_clv_restart_flags, align 4
  %27 = call ptr @proto_tree_add_bitmask_with_flags(ptr noundef %22, ptr noundef %23, i32 noundef %24, i32 noundef %25, i32 noundef %26, ptr noundef @dissect_hello_restart_clv.flags, i32 noundef 0, i32 noundef 12)
  br label %28

28:                                               ; preds = %17, %6
  %29 = load i32, ptr %12, align 4
  %30 = icmp sge i32 %29, 3
  br i1 %30, label %31, label %43

31:                                               ; preds = %28
  %32 = load i32, ptr %13, align 4
  %33 = and i32 %32, 2
  %34 = icmp ne i32 %33, 0
  br i1 %34, label %35, label %43

35:                                               ; preds = %31
  %36 = load ptr, ptr %9, align 8
  %37 = load i32, ptr @hf_isis_hello_clv_restart_remain_time, align 4
  %38 = load ptr, ptr %7, align 8
  %39 = load i32, ptr %10, align 4
  %40 = add i32 %39, 1
  %41 = call ptr @proto_tree_add_item(ptr noundef %36, i32 noundef %37, ptr noundef %38, i32 noundef %40, i32 noundef 2, i32 noundef 0)
  store ptr %41, ptr %14, align 8
  %42 = load ptr, ptr %14, align 8
  call void (ptr, ptr, ...) @proto_item_append_text(ptr noundef %42, ptr noundef @.str.215)
  br label %43

43:                                               ; preds = %35, %31, %28
  %44 = load i32, ptr %12, align 4
  %45 = load ptr, ptr %11, align 8
  %46 = getelementptr inbounds nuw %struct.isis_data, ptr %45, i32 0, i32 1
  %47 = load i8, ptr %46, align 1
  %48 = zext i8 %47 to i32
  %49 = add i32 3, %48
  %50 = icmp sge i32 %44, %49
  br i1 %50, label %51, label %66

51:                                               ; preds = %43
  %52 = load i32, ptr %13, align 4
  %53 = and i32 %52, 2
  %54 = icmp ne i32 %53, 0
  br i1 %54, label %55, label %66

55:                                               ; preds = %51
  %56 = load ptr, ptr %9, align 8
  %57 = load i32, ptr @hf_isis_hello_clv_restart_neighbor, align 4
  %58 = load ptr, ptr %7, align 8
  %59 = load i32, ptr %10, align 4
  %60 = add i32 %59, 3
  %61 = load ptr, ptr %11, align 8
  %62 = getelementptr inbounds nuw %struct.isis_data, ptr %61, i32 0, i32 1
  %63 = load i8, ptr %62, align 1
  %64 = zext i8 %63 to i32
  %65 = call ptr @proto_tree_add_item(ptr noundef %56, i32 noundef %57, ptr noundef %58, i32 noundef %60, i32 noundef %64, i32 noundef 0)
  br label %66

66:                                               ; preds = %55, %51, %43
  call void @llvm.lifetime.end.p0(i64 8, ptr %14) #4
  call void @llvm.lifetime.end.p0(i64 4, ptr %13) #4
  ret void
}