; Function Attrs: null_pointer_is_valid sspstrong uwtable
define internal void @dissect_hello_restart_clv(ptr noundef %0, ptr readnone captures(none) %1, ptr noundef %2, i32 noundef %3, ptr noundef readonly captures(none) %4, i32 noundef %5) #0 {
  %7 = icmp sgt i32 %5, 0
  br i1 %7, label %8, label %.thread25

8:                                                ; preds = %6
  %9 = tail call zeroext i8 @tvb_get_uint8(ptr noundef %0, i32 noundef %3)
  %10 = load i32, ptr @hf_isis_hello_clv_restart_flags, align 4
  %11 = load i32, ptr @ett_isis_hello_clv_restart_flags, align 4
  %12 = tail call ptr @proto_tree_add_bitmask_with_flags(ptr noundef %2, ptr noundef %0, i32 noundef %3, i32 noundef %10, i32 noundef %11, ptr noundef nonnull @dissect_hello_restart_clv.flags, i32 noundef 0, i32 noundef 12)
  %13 = and i8 %9, 2
  %14 = icmp eq i8 %13, 0
  %15 = icmp samesign ult i32 %5, 3
  %brmerge = select i1 %15, i1 true, i1 %14
  br i1 %brmerge, label %20, label %16

16:                                               ; preds = %8
  %17 = load i32, ptr @hf_isis_hello_clv_restart_remain_time, align 4
  %18 = add i32 %3, 1
  %19 = tail call ptr @proto_tree_add_item(ptr noundef %2, i32 noundef %17, ptr noundef %0, i32 noundef %18, i32 noundef 2, i32 noundef 0)
  tail call void (ptr, ptr, ...) @proto_item_append_text(ptr noundef %19, ptr noundef nonnull @.str.215)
  br label %20

20:                                               ; preds = %8, %16
  %21 = getelementptr inbounds nuw i8, ptr %4, i64 1
  %22 = load i8, ptr %21, align 1
  %23 = zext i8 %22 to i32
  %24 = add nuw nsw i32 %23, 3
  %.not18 = icmp samesign ult i32 %5, %24
  %brmerge20 = select i1 %.not18, i1 true, i1 %14
  br i1 %brmerge20, label %.thread25, label %25

25:                                               ; preds = %20
  %26 = load i32, ptr @hf_isis_hello_clv_restart_neighbor, align 4
  %27 = add i32 %3, 3
  %28 = tail call ptr @proto_tree_add_item(ptr noundef %2, i32 noundef %26, ptr noundef %0, i32 noundef %27, i32 noundef %23, i32 noundef 0)
  br label %.thread25

.thread25:                                        ; preds = %6, %20, %25
  ret void
}